; Function Attrs: mustprogress uwtable
define void @_ZN5arrow2io8Writable5WriteERKSt10shared_ptrINS_6BufferEE(ptr noalias sret(%"class.arrow::Status") align 8 %agg.result, ptr noundef nonnull align 8 dereferenceable(8) %this, ptr nocapture noundef nonnull readonly align 8 dereferenceable(16) %data) unnamed_addr #0 align 2 {
entry:
  %0 = load ptr, ptr %data, align 8
  %is_cpu_.i = getelementptr inbounds i8, ptr %0, i64 9
  %1 = load i8, ptr %is_cpu_.i, align 1
  %2 = and i8 %1, 1
  %tobool.not.i = icmp eq i8 %2, 0
  %data_.i = getelementptr inbounds i8, ptr %0, i64 16
  %3 = load ptr, ptr %data_.i, align 8
  %cond.i = select i1 %tobool.not.i, ptr null, ptr %3
  %size_.i = getelementptr inbounds i8, ptr %0, i64 24
  %4 = load i64, ptr %size_.i, align 8
  %vtable = load ptr, ptr %this, align 8
  %vfn = getelementptr inbounds i8, ptr %vtable, i64 16
  %5 = load ptr, ptr %vfn, align 8
  tail call void %5(ptr sret(%"class.arrow::Status") align 8 %agg.result, ptr noundef nonnull align 8 dereferenceable(8) %this, ptr noundef %cond.i, i64 noundef %4)
  ret void
}